target datalayout = "e-m:e-p270:32:32-p271:32:32-p272:64:64-i64:64-i128:128-f80:128-n8:16:32:64-S128"
target triple = "x86_64-pc-linux-gnu"

; Function Attrs: mustprogress nounwind uwtable
define hidden noundef zeroext i1 @_ZN2cv5utils7logging13LogTagManager24internal_isNamePartMatchENS2_13MatchingScopeEm(i32 noundef %0, i64 noundef %1) #2 align 2 {
  %3 = alloca i1, align 1
  %4 = alloca i32, align 4
  %5 = alloca i64, align 8
  store i32 %0, ptr %4, align 4, !tbaa !102
  store i64 %1, ptr %5, align 8, !tbaa !93
  %6 = load i32, ptr %4, align 4, !tbaa !102
  switch i32 %6, label %12 [
    i32 2, label %7
    i32 3, label %10
    i32 0, label %11
    i32 1, label %11
  ]

7:                                                ; preds = %2
  %8 = load i64, ptr %5, align 8, !tbaa !93
  %9 = icmp eq i64 %8, 0
  store i1 %9, ptr %3, align 1
  br label %13

10:                                               ; preds = %2
  store i1 true, ptr %3, align 1
  br label %13

11:                                               ; preds = %2, %2
  br label %12

12:                                               ; preds = %2, %11
  store i1 false, ptr %3, align 1
  br label %13

13:                                               ; preds = %12, %10, %7
  %14 = load i1, ptr %3, align 1
  ret i1 %14
}