; Function Attrs: mustprogress nofree norecurse nosync nounwind willreturn memory(none) uwtable
define hidden noundef zeroext i1 @_ZN2cv5utils7logging13LogTagManager24internal_isNamePartMatchENS2_13MatchingScopeEm(i32 noundef %0, i64 noundef %1) local_unnamed_addr #11 align 2 {
  switch i32 %0, label %5 [
    i32 2, label %3
    i32 3, label %6
  ]

3:                                                ; preds = %2
  %4 = icmp eq i64 %1, 0
  br label %6

5:                                                ; preds = %2
  br label %6

6:                                                ; preds = %2, %5, %3
  %.0 = phi i1 [ false, %5 ], [ %4, %3 ], [ true, %2 ]
  ret i1 %.0
}